target datalayout = "e-m:e-p270:32:32-p271:32:32-p272:64:64-i64:64-i128:128-f80:128-n8:16:32:64-S128"
target triple = "x86_64-pc-linux-gnu"

; Function Attrs: nounwind uwtable
define i32 @wc_DhAgree_ct(ptr noundef %0, ptr noundef %1, ptr noundef %2, ptr noundef %3, i32 noundef %4, ptr noundef %5, i32 noundef %6) #0 {
  %8 = alloca i32, align 4
  %9 = alloca ptr, align 8
  %10 = alloca ptr, align 8
  %11 = alloca ptr, align 8
  %12 = alloca ptr, align 8
  %13 = alloca i32, align 4
  %14 = alloca ptr, align 8
  %15 = alloca i32, align 4
  %16 = alloca i32, align 4
  %17 = alloca i32, align 4
  %18 = alloca ptr, align 8
  %19 = alloca i32, align 4
  %20 = alloca ptr, align 8
  %21 = alloca ptr, align 8
  %22 = alloca i32, align 4
  %23 = alloca ptr, align 8
  store ptr %0, ptr %9, align 8, !tbaa !3
  store ptr %1, ptr %10, align 8, !tbaa !16
  store ptr %2, ptr %11, align 8, !tbaa !29
  store ptr %3, ptr %12, align 8, !tbaa !16
  store i32 %4, ptr %13, align 4, !tbaa !9
  store ptr %5, ptr %14, align 8, !tbaa !16
  store i32 %6, ptr %15, align 4, !tbaa !9
  call void @llvm.lifetime.start.p0(i64 4, ptr %16) #9
  call void @llvm.lifetime.start.p0(i64 4, ptr %17) #9
  call void @llvm.lifetime.start.p0(i64 8, ptr %18) #9
  store ptr null, ptr %18, align 8, !tbaa !16
  %24 = load ptr, ptr %9, align 8, !tbaa !3
  %25 = icmp eq ptr %24, null
  br i1 %25, label %38, label %26

26:                                               ; preds = %7
  %27 = load ptr, ptr %10, align 8, !tbaa !16
  %28 = icmp eq ptr %27, null
  br i1 %28, label %38, label %29

29:                                               ; preds = %26
  %30 = load ptr, ptr %11, align 8, !tbaa !29
  %31 = icmp eq ptr %30, null
  br i1 %31, label %38, label %32

32:                                               ; preds = %29
  %33 = load ptr, ptr %12, align 8, !tbaa !16
  %34 = icmp eq ptr %33, null
  br i1 %34, label %38, label %35

35:                                               ; preds = %32
  %36 = load ptr, ptr %14, align 8, !tbaa !16
  %37 = icmp eq ptr %36, null
  br i1 %37, label %38, label %39

38:                                               ; preds = %35, %32, %29, %26, %7
  store i32 -173, ptr %8, align 4
  store i32 1, ptr %19, align 4
  br label %109

39:                                               ; preds = %35
  %40 = load ptr, ptr %11, align 8, !tbaa !29
  %41 = load i32, ptr %40, align 4, !tbaa !9
  store i32 %41, ptr %17, align 4, !tbaa !9
  %42 = load i32, ptr %17, align 4, !tbaa !9
  %43 = zext i32 %42 to i64
  %44 = call ptr @wolfSSL_Malloc(i64 noundef %43)
  store ptr %44, ptr %18, align 8, !tbaa !16
  %45 = load ptr, ptr %18, align 8, !tbaa !16
  %46 = icmp eq ptr %45, null
  br i1 %46, label %47, label %48

47:                                               ; preds = %39
  store i32 -125, ptr %8, align 4
  store i32 1, ptr %19, align 4
  br label %109

48:                                               ; preds = %39
  %49 = load ptr, ptr %18, align 8, !tbaa !16
  %50 = load i32, ptr %17, align 4, !tbaa !9
  %51 = zext i32 %50 to i64
  call void @llvm.memset.p0.i64(ptr align 1 %49, i8 0, i64 %51, i1 false)
  %52 = load ptr, ptr %9, align 8, !tbaa !3
  %53 = load ptr, ptr %18, align 8, !tbaa !16
  %54 = load ptr, ptr %11, align 8, !tbaa !29
  %55 = load ptr, ptr %12, align 8, !tbaa !16
  %56 = load i32, ptr %13, align 4, !tbaa !9
  %57 = load ptr, ptr %14, align 8, !tbaa !16
  %58 = load i32, ptr %15, align 4, !tbaa !9
  %59 = call i32 @wc_DhAgree_Sync(ptr noundef %52, ptr noundef %53, ptr noundef %54, ptr noundef %55, i32 noundef %56, ptr noundef %57, i32 noundef %58, i32 noundef 1)
  store i32 %59, ptr %16, align 4, !tbaa !9
  %60 = load i32, ptr %16, align 4, !tbaa !9
  %61 = icmp eq i32 %60, 0
  br i1 %61, label %62, label %98

62:                                               ; preds = %48
  call void @llvm.lifetime.start.p0(i64 8, ptr %20) #9
  %63 = load ptr, ptr %18, align 8, !tbaa !16
  %64 = load ptr, ptr %11, align 8, !tbaa !29
  %65 = load i32, ptr %64, align 4, !tbaa !9
  %66 = zext i32 %65 to i64
  %67 = getelementptr inbounds nuw i8, ptr %63, i64 %66
  %68 = getelementptr inbounds i8, ptr %67, i64 -1
  store ptr %68, ptr %20, align 8, !tbaa !16
  call void @llvm.lifetime.start.p0(i64 8, ptr %21) #9
  %69 = load ptr, ptr %10, align 8, !tbaa !16
  %70 = load i32, ptr %17, align 4, !tbaa !9
  %71 = zext i32 %70 to i64
  %72 = getelementptr inbounds nuw i8, ptr %69, i64 %71
  %73 = getelementptr inbounds i8, ptr %72, i64 -1
  store ptr %73, ptr %21, align 8, !tbaa !16
  br label %74

74:                                               ; preds = %78, %62
  %75 = load ptr, ptr %21, align 8, !tbaa !16
  %76 = load ptr, ptr %10, align 8, !tbaa !16
  %77 = icmp uge ptr %75, %76
  br i1 %77, label %78, label %95

78:                                               ; preds = %74
  call void @llvm.lifetime.start.p0(i64 4, ptr %22) #9
  %79 = load ptr, ptr %20, align 8, !tbaa !16
  %80 = load ptr, ptr %18, align 8, !tbaa !16
  %81 = icmp uge ptr %79, %80
  %82 = zext i1 %81 to i32
  %83 = sub i32 %82, 1
  store i32 %83, ptr %22, align 4, !tbaa !9
  %84 = load i32, ptr %22, align 4, !tbaa !9
  %85 = load i32, ptr %17, align 4, !tbaa !9
  %86 = and i32 %84, %85
  %87 = load ptr, ptr %20, align 8, !tbaa !16
  %88 = zext i32 %86 to i64
  %89 = getelementptr inbounds nuw i8, ptr %87, i64 %88
  store ptr %89, ptr %20, align 8, !tbaa !16
  %90 = load ptr, ptr %20, align 8, !tbaa !16
  %91 = getelementptr inbounds i8, ptr %90, i32 -1
  store ptr %91, ptr %20, align 8, !tbaa !16
  %92 = load i8, ptr %90, align 1, !tbaa !19
  %93 = load ptr, ptr %21, align 8, !tbaa !16
  %94 = getelementptr inbounds i8, ptr %93, i32 -1
  store ptr %94, ptr %21, align 8, !tbaa !16
  store i8 %92, ptr %93, align 1, !tbaa !19
  call void @llvm.lifetime.end.p0(i64 4, ptr %22) #9
  br label %74, !llvm.loop !31

95:                                               ; preds = %74
  %96 = load i32, ptr %17, align 4, !tbaa !9
  %97 = load ptr, ptr %11, align 8, !tbaa !29
  store i32 %96, ptr %97, align 4, !tbaa !9
  call void @llvm.lifetime.end.p0(i64 8, ptr %21) #9
  call void @llvm.lifetime.end.p0(i64 8, ptr %20) #9
  br label %98

98:                                               ; preds = %95, %48
  br label %99

99:                                               ; preds = %98
  call void @llvm.lifetime.start.p0(i64 8, ptr %23) #9
  %100 = load ptr, ptr %18, align 8, !tbaa !16
  store ptr %100, ptr %23, align 8, !tbaa !8
  %101 = load ptr, ptr %23, align 8, !tbaa !8
  %102 = icmp ne ptr %101, null
  br i1 %102, label %103, label %105

103:                                              ; preds = %99
  %104 = load ptr, ptr %23, align 8, !tbaa !8
  call void @wolfSSL_Free(ptr noundef %104)
  br label %105

105:                                              ; preds = %103, %99
  call void @llvm.lifetime.end.p0(i64 8, ptr %23) #9
  br label %106

106:                                              ; preds = %105
  br label %107

107:                                              ; preds = %106
  %108 = load i32, ptr %16, align 4, !tbaa !9
  store i32 %108, ptr %8, align 4
  store i32 1, ptr %19, align 4
  br label %109

109:                                              ; preds = %107, %47, %38
  call void @llvm.lifetime.end.p0(i64 8, ptr %18) #9
  call void @llvm.lifetime.end.p0(i64 4, ptr %17) #9
  call void @llvm.lifetime.end.p0(i64 4, ptr %16) #9
  %110 = load i32, ptr %8, align 4
  ret i32 %110
}