; Function Attrs: nounwind uwtable
define i32 @wc_DhAgree_ct(ptr noundef %0, ptr noundef writeonly captures(address) %1, ptr noundef captures(address_is_null) %2, ptr noundef %3, i32 noundef %4, ptr noundef %5, i32 noundef %6) local_unnamed_addr #1 {
  %8 = icmp eq ptr %0, null
  %9 = icmp eq ptr %1, null
  %or.cond = or i1 %8, %9
  %10 = icmp eq ptr %2, null
  %or.cond3 = or i1 %or.cond, %10
  %11 = icmp eq ptr %3, null
  %or.cond5 = or i1 %or.cond3, %11
  %12 = icmp eq ptr %5, null
  %or.cond7 = or i1 %or.cond5, %12
  br i1 %or.cond7, label %30, label %13

13:                                               ; preds = %7
  %14 = load i32, ptr %2, align 4, !tbaa !21
  %15 = zext i32 %14 to i64
  %16 = tail call ptr @wolfSSL_Malloc(i64 noundef %15) #14
  %17 = icmp eq ptr %16, null
  br i1 %17, label %30, label %18

18:                                               ; preds = %13
  tail call void @llvm.memset.p0.i64(ptr nonnull align 1 %16, i8 0, i64 %15, i1 false)
  %19 = tail call fastcc i32 @wc_DhAgree_Sync(ptr noundef %0, ptr noundef %16, ptr noundef %2, ptr noundef %3, i32 noundef %4, ptr noundef nonnull %5, i32 noundef %6, i32 noundef 1)
  %20 = icmp eq i32 %19, 0
  br i1 %20, label %21, label %29

21:                                               ; preds = %18
  %22 = getelementptr inbounds nuw i8, ptr %1, i64 %15
  %.04453 = getelementptr inbounds i8, ptr %22, i64 -1
  %.not54 = icmp ult ptr %.04453, %1
  br i1 %.not54, label %._crit_edge, label %.lr.ph.preheader

.lr.ph.preheader:                                 ; preds = %21
  %23 = load i32, ptr %2, align 4, !tbaa !21
  %24 = zext i32 %23 to i64
  %25 = getelementptr inbounds nuw i8, ptr %16, i64 %24
  br label %.lr.ph

.lr.ph:                                           ; preds = %.lr.ph.preheader, %.lr.ph
  %.04456 = phi ptr [ %.044, %.lr.ph ], [ %.04453, %.lr.ph.preheader ]
  %.pn55 = phi ptr [ %27, %.lr.ph ], [ %25, %.lr.ph.preheader ]
  %.045 = getelementptr inbounds i8, ptr %.pn55, i64 -1
  %.not51 = icmp ult ptr %.045, %16
  %26 = select i1 %.not51, i64 %15, i64 0
  %27 = getelementptr inbounds nuw i8, ptr %.045, i64 %26
  %28 = load i8, ptr %27, align 1, !tbaa !13
  store i8 %28, ptr %.04456, align 1, !tbaa !13
  %.044 = getelementptr inbounds i8, ptr %.04456, i64 -1
  %.not = icmp ult ptr %.044, %1
  br i1 %.not, label %._crit_edge, label %.lr.ph, !llvm.loop !25

._crit_edge:                                      ; preds = %.lr.ph, %21
  store i32 %14, ptr %2, align 4, !tbaa !21
  br label %29

29:                                               ; preds = %._crit_edge, %18
  tail call void @wolfSSL_Free(ptr noundef nonnull %16) #14
  br label %30

30:                                               ; preds = %13, %7, %29
  %.0 = phi i32 [ %19, %29 ], [ -173, %7 ], [ -125, %13 ]
  ret i32 %.0
}